target datalayout = "e-m:e-p270:32:32-p271:32:32-p272:64:64-i64:64-i128:128-f80:128-n8:16:32:64-S128"
target triple = "x86_64-pc-linux-gnu"

%struct.SDL_VideoDevice = type { ptr, ptr, ptr, ptr, ptr, ptr, ptr, ptr, ptr, ptr, ptr, ptr, ptr, ptr, ptr, ptr, ptr, ptr, ptr, ptr, ptr, ptr, ptr, ptr, ptr, ptr, ptr, ptr, ptr, ptr, ptr, ptr, ptr, ptr, ptr, ptr, ptr, ptr, ptr, ptr, ptr, ptr, ptr, ptr, ptr, ptr, ptr, ptr, ptr, ptr, ptr, ptr, ptr, ptr, ptr, ptr, ptr, ptr, ptr, ptr, ptr, ptr, ptr, ptr, ptr, ptr, ptr, ptr, ptr, ptr, ptr, ptr, ptr, ptr, ptr, ptr, ptr, ptr, ptr, ptr, ptr, ptr, ptr, ptr, ptr, ptr, ptr, ptr, ptr, ptr, ptr, ptr, ptr, ptr, ptr, ptr, ptr, i64, i8, i8, i8, ptr, i32, ptr, %struct.SDL_Rect, ptr, ptr, i32, ptr, ptr, ptr, ptr, i64, ptr, i8, i32, i32, %struct.anon, ptr, ptr, ptr, ptr, ptr, ptr, %struct.SDL_AtomicInt, %struct.SDL_AtomicInt, i8, %struct.anon.0, ptr, ptr, ptr, ptr, ptr }
%struct.SDL_Rect = type { i32, i32, i32, i32 }
%struct.anon = type { i32, i32, i32, i32, i32, i32, i32, i32, i32, i32, i32, i32, i32, i32, i32, i32, i32, i32, i32, i32, i32, i32, i32, i32, i32, i32, i32, i32, i32, [256 x i8], ptr }
%struct.SDL_AtomicInt = type { i32 }
%struct.anon.0 = type { ptr, ptr, i32, [256 x i8], ptr }
%struct.SDL_GLDriverData = type { i32, i32, i8, i8, i8, i8, i8, i8, %struct.anon.1, i32, ptr, ptr, ptr, ptr, ptr, ptr, ptr, ptr, ptr, ptr, ptr, ptr, ptr, ptr, ptr }
%struct.anon.1 = type { i32, i32 }

; Function Attrs: nounwind uwtable
define hidden ptr @X11_GL_GetProcAddress(ptr noundef %0, ptr noundef %1) #0 {
  %3 = alloca ptr, align 8
  %4 = alloca ptr, align 8
  %5 = alloca ptr, align 8
  store ptr %0, ptr %4, align 8
  store ptr %1, ptr %5, align 8
  %6 = load ptr, ptr %4, align 8
  %7 = getelementptr inbounds nuw %struct.SDL_VideoDevice, ptr %6, i32 0, i32 129
  %8 = load ptr, ptr %7, align 8
  %9 = getelementptr inbounds nuw %struct.SDL_GLDriverData, ptr %8, i32 0, i32 11
  %10 = load ptr, ptr %9, align 8
  %11 = icmp ne ptr %10, null
  br i1 %11, label %12, label %20

12:                                               ; preds = %2
  %13 = load ptr, ptr %4, align 8
  %14 = getelementptr inbounds nuw %struct.SDL_VideoDevice, ptr %13, i32 0, i32 129
  %15 = load ptr, ptr %14, align 8
  %16 = getelementptr inbounds nuw %struct.SDL_GLDriverData, ptr %15, i32 0, i32 11
  %17 = load ptr, ptr %16, align 8
  %18 = load ptr, ptr %5, align 8
  %19 = call ptr %17(ptr noundef %18)
  store ptr %19, ptr %3, align 8
  br label %27

20:                                               ; preds = %2
  %21 = load ptr, ptr %4, align 8
  %22 = getelementptr inbounds nuw %struct.SDL_VideoDevice, ptr %21, i32 0, i32 117
  %23 = getelementptr inbounds nuw %struct.anon, ptr %22, i32 0, i32 30
  %24 = load ptr, ptr %23, align 8
  %25 = load ptr, ptr %5, align 8
  %26 = call ptr @dlsym(ptr noundef %24, ptr noundef %25) #5
  store ptr %26, ptr %3, align 8
  br label %27

27:                                               ; preds = %20, %12
  %28 = load ptr, ptr %3, align 8
  ret ptr %28
}