; Function Attrs: nounwind uwtable
define hidden ptr @X11_GL_GetProcAddress(ptr noundef readonly captures(none) %0, ptr noundef %1) local_unnamed_addr #0 {
  %3 = getelementptr inbounds nuw i8, ptr %0, i64 1664
  %4 = load ptr, ptr %3, align 8
  %5 = getelementptr inbounds nuw i8, ptr %4, i64 40
  %6 = load ptr, ptr %5, align 8
  %.not = icmp eq ptr %6, null
  br i1 %.not, label %9, label %7

7:                                                ; preds = %2
  %8 = tail call ptr %6(ptr noundef %1) #6
  br label %13

9:                                                ; preds = %2
  %10 = getelementptr inbounds nuw i8, ptr %0, i64 1296
  %11 = load ptr, ptr %10, align 8
  %12 = tail call ptr @dlsym(ptr noundef %11, ptr noundef %1) #6
  br label %13

13:                                               ; preds = %9, %7
  %.0 = phi ptr [ %8, %7 ], [ %12, %9 ]
  ret ptr %.0
}